target datalayout = "e-m:e-p270:32:32-p271:32:32-p272:64:64-i64:64-i128:128-f80:128-n8:16:32:64-S128"
target triple = "x86_64-pc-linux-gnu"

%struct.ident_t = type { i32, i32, i32, i32, ptr }

@1 = private unnamed_addr constant %struct.ident_t { i32 0, i32 514, i32 0, i32 22, ptr @0 }, align 8
@2 = private unnamed_addr constant %struct.ident_t { i32 0, i32 66, i32 0, i32 22, ptr @0 }, align 8

; Function Attrs: alwaysinline norecurse nounwind uwtable
define internal void @statevec_pauliYLocal.omp_outlined(ptr noalias noundef %0, ptr noalias noundef %1, ptr noundef nonnull align 8 dereferenceable(8) %2, ptr noundef nonnull align 8 dereferenceable(8) %3, ptr noundef nonnull align 8 dereferenceable(8) %4, ptr noundef nonnull align 8 dereferenceable(8) %5, ptr noundef nonnull align 8 dereferenceable(8) %6, ptr noundef nonnull align 4 dereferenceable(4) %7) #2 {
  %9 = alloca ptr, align 8
  %10 = alloca ptr, align 8
  %11 = alloca ptr, align 8
  %12 = alloca ptr, align 8
  %13 = alloca ptr, align 8
  %14 = alloca ptr, align 8
  %15 = alloca ptr, align 8
  %16 = alloca ptr, align 8
  %17 = alloca i64, align 8
  %18 = alloca i64, align 8
  %19 = alloca i64, align 8
  %20 = alloca double, align 8
  %21 = alloca double, align 8
  %22 = alloca i64, align 8
  %23 = alloca i64, align 8
  %24 = alloca i64, align 8
  %25 = alloca i64, align 8
  %26 = alloca i64, align 8
  %27 = alloca i64, align 8
  %28 = alloca i64, align 8
  %29 = alloca i32, align 4
  %30 = alloca i64, align 8
  store ptr %0, ptr %9, align 8, !tbaa !19
  store ptr %1, ptr %10, align 8, !tbaa !19
  store ptr %2, ptr %11, align 8, !tbaa !21
  store ptr %3, ptr %12, align 8, !tbaa !21
  store ptr %4, ptr %13, align 8, !tbaa !21
  store ptr %5, ptr %14, align 8, !tbaa !33
  store ptr %6, ptr %15, align 8, !tbaa !33
  store ptr %7, ptr %16, align 8, !tbaa !19
  %31 = load ptr, ptr %11, align 8, !tbaa !21
  %32 = load ptr, ptr %12, align 8, !tbaa !21
  %33 = load ptr, ptr %13, align 8, !tbaa !21
  %34 = load ptr, ptr %14, align 8, !tbaa !33
  %35 = load ptr, ptr %15, align 8, !tbaa !33
  %36 = load ptr, ptr %16, align 8, !tbaa !19
  call void @llvm.lifetime.start.p0(i64 8, ptr %17) #3
  call void @llvm.lifetime.start.p0(i64 8, ptr %18) #3
  call void @llvm.lifetime.start.p0(i64 8, ptr %19) #3
  call void @llvm.lifetime.start.p0(i64 8, ptr %20) #3
  call void @llvm.lifetime.start.p0(i64 8, ptr %21) #3
  call void @llvm.lifetime.start.p0(i64 8, ptr %22) #3
  call void @llvm.lifetime.start.p0(i64 8, ptr %23) #3
  %37 = load i64, ptr %31, align 8, !tbaa !4
  store i64 %37, ptr %23, align 8, !tbaa !4
  call void @llvm.lifetime.start.p0(i64 8, ptr %24) #3
  %38 = load i64, ptr %23, align 8, !tbaa !4
  %39 = sub nsw i64 %38, 0
  %40 = sdiv i64 %39, 1
  %41 = sub nsw i64 %40, 1
  store i64 %41, ptr %24, align 8, !tbaa !4
  call void @llvm.lifetime.start.p0(i64 8, ptr %25) #3
  store i64 0, ptr %25, align 8, !tbaa !4
  call void @llvm.lifetime.end.p0(i64 8, ptr %25) #3
  %42 = load i64, ptr %23, align 8, !tbaa !4
  %43 = icmp slt i64 0, %42
  br i1 %43, label %44, label %132

44:                                               ; preds = %8
  call void @llvm.lifetime.start.p0(i64 8, ptr %26) #3
  store i64 0, ptr %26, align 8, !tbaa !4
  call void @llvm.lifetime.start.p0(i64 8, ptr %27) #3
  %45 = load i64, ptr %24, align 8, !tbaa !4
  store i64 %45, ptr %27, align 8, !tbaa !4
  call void @llvm.lifetime.start.p0(i64 8, ptr %28) #3
  store i64 1, ptr %28, align 8, !tbaa !4
  call void @llvm.lifetime.start.p0(i64 4, ptr %29) #3
  store i32 0, ptr %29, align 4, !tbaa !8
  call void @llvm.lifetime.start.p0(i64 8, ptr %30) #3
  %46 = load ptr, ptr %9, align 8
  %47 = load i32, ptr %46, align 4, !tbaa !8
  call void @__kmpc_for_static_init_8(ptr @1, i32 %47, i32 34, ptr %29, ptr %26, ptr %27, ptr %28, i64 1, i64 1)
  %48 = load i64, ptr %27, align 8, !tbaa !4
  %49 = load i64, ptr %24, align 8, !tbaa !4
  %50 = icmp sgt i64 %48, %49
  br i1 %50, label %51, label %53

51:                                               ; preds = %44
  %52 = load i64, ptr %24, align 8, !tbaa !4
  br label %55

53:                                               ; preds = %44
  %54 = load i64, ptr %27, align 8, !tbaa !4
  br label %55

55:                                               ; preds = %53, %51
  %56 = phi i64 [ %52, %51 ], [ %54, %53 ]
  store i64 %56, ptr %27, align 8, !tbaa !4
  %57 = load i64, ptr %26, align 8, !tbaa !4
  store i64 %57, ptr %22, align 8, !tbaa !4
  br label %58

58:                                               ; preds = %125, %55
  %59 = load i64, ptr %22, align 8, !tbaa !4
  %60 = load i64, ptr %27, align 8, !tbaa !4
  %61 = icmp sle i64 %59, %60
  br i1 %61, label %63, label %62

62:                                               ; preds = %58
  br label %128

63:                                               ; preds = %58
  %64 = load i64, ptr %22, align 8, !tbaa !4
  %65 = mul nsw i64 %64, 1
  %66 = add nsw i64 0, %65
  store i64 %66, ptr %30, align 8, !tbaa !4
  %67 = load i64, ptr %30, align 8, !tbaa !4
  %68 = load i64, ptr %32, align 8, !tbaa !4
  %69 = sdiv i64 %67, %68
  store i64 %69, ptr %17, align 8, !tbaa !4
  %70 = load i64, ptr %17, align 8, !tbaa !4
  %71 = load i64, ptr %33, align 8, !tbaa !4
  %72 = mul nsw i64 %70, %71
  %73 = load i64, ptr %30, align 8, !tbaa !4
  %74 = load i64, ptr %32, align 8, !tbaa !4
  %75 = srem i64 %73, %74
  %76 = add nsw i64 %72, %75
  store i64 %76, ptr %18, align 8, !tbaa !4
  %77 = load i64, ptr %18, align 8, !tbaa !4
  %78 = load i64, ptr %32, align 8, !tbaa !4
  %79 = add nsw i64 %77, %78
  store i64 %79, ptr %19, align 8, !tbaa !4
  %80 = load ptr, ptr %34, align 8, !tbaa !25
  %81 = load i64, ptr %18, align 8, !tbaa !4
  %82 = getelementptr inbounds double, ptr %80, i64 %81
  %83 = load double, ptr %82, align 8, !tbaa !10
  store double %83, ptr %20, align 8, !tbaa !10
  %84 = load ptr, ptr %35, align 8, !tbaa !25
  %85 = load i64, ptr %18, align 8, !tbaa !4
  %86 = getelementptr inbounds double, ptr %84, i64 %85
  %87 = load double, ptr %86, align 8, !tbaa !10
  store double %87, ptr %21, align 8, !tbaa !10
  %88 = load i32, ptr %36, align 4, !tbaa !8
  %89 = sitofp i32 %88 to double
  %90 = load ptr, ptr %35, align 8, !tbaa !25
  %91 = load i64, ptr %19, align 8, !tbaa !4
  %92 = getelementptr inbounds double, ptr %90, i64 %91
  %93 = load double, ptr %92, align 8, !tbaa !10
  %94 = fmul double %89, %93
  %95 = load ptr, ptr %34, align 8, !tbaa !25
  %96 = load i64, ptr %18, align 8, !tbaa !4
  %97 = getelementptr inbounds double, ptr %95, i64 %96
  store double %94, ptr %97, align 8, !tbaa !10
  %98 = load i32, ptr %36, align 4, !tbaa !8
  %99 = sitofp i32 %98 to double
  %100 = load ptr, ptr %34, align 8, !tbaa !25
  %101 = load i64, ptr %19, align 8, !tbaa !4
  %102 = getelementptr inbounds double, ptr %100, i64 %101
  %103 = load double, ptr %102, align 8, !tbaa !10
  %104 = fneg double %103
  %105 = fmul double %99, %104
  %106 = load ptr, ptr %35, align 8, !tbaa !25
  %107 = load i64, ptr %18, align 8, !tbaa !4
  %108 = getelementptr inbounds double, ptr %106, i64 %107
  store double %105, ptr %108, align 8, !tbaa !10
  %109 = load i32, ptr %36, align 4, !tbaa !8
  %110 = sitofp i32 %109 to double
  %111 = load double, ptr %21, align 8, !tbaa !10
  %112 = fneg double %111
  %113 = fmul double %110, %112
  %114 = load ptr, ptr %34, align 8, !tbaa !25
  %115 = load i64, ptr %19, align 8, !tbaa !4
  %116 = getelementptr inbounds double, ptr %114, i64 %115
  store double %113, ptr %116, align 8, !tbaa !10
  %117 = load i32, ptr %36, align 4, !tbaa !8
  %118 = sitofp i32 %117 to double
  %119 = load double, ptr %20, align 8, !tbaa !10
  %120 = fmul double %118, %119
  %121 = load ptr, ptr %35, align 8, !tbaa !25
  %122 = load i64, ptr %19, align 8, !tbaa !4
  %123 = getelementptr inbounds double, ptr %121, i64 %122
  store double %120, ptr %123, align 8, !tbaa !10
  br label %124

124:                                              ; preds = %63
  br label %125

125:                                              ; preds = %124
  %126 = load i64, ptr %22, align 8, !tbaa !4
  %127 = add nsw i64 %126, 1
  store i64 %127, ptr %22, align 8, !tbaa !4
  br label %58

128:                                              ; preds = %62
  br label %129

129:                                              ; preds = %128
  %130 = load ptr, ptr %9, align 8
  %131 = load i32, ptr %130, align 4, !tbaa !8
  call void @__kmpc_for_static_fini(ptr @1, i32 %131)
  call void @llvm.lifetime.end.p0(i64 8, ptr %30) #3
  call void @llvm.lifetime.end.p0(i64 4, ptr %29) #3
  call void @llvm.lifetime.end.p0(i64 8, ptr %28) #3
  call void @llvm.lifetime.end.p0(i64 8, ptr %27) #3
  call void @llvm.lifetime.end.p0(i64 8, ptr %26) #3
  br label %132

132:                                              ; preds = %129, %8
  call void @llvm.lifetime.end.p0(i64 8, ptr %24) #3
  call void @llvm.lifetime.end.p0(i64 8, ptr %23) #3
  call void @llvm.lifetime.end.p0(i64 8, ptr %22) #3
  %133 = load ptr, ptr %9, align 8
  %134 = load i32, ptr %133, align 4, !tbaa !8
  call void @__kmpc_barrier(ptr @2, i32 %134)
  call void @llvm.lifetime.end.p0(i64 8, ptr %21) #3
  call void @llvm.lifetime.end.p0(i64 8, ptr %20) #3
  call void @llvm.lifetime.end.p0(i64 8, ptr %19) #3
  call void @llvm.lifetime.end.p0(i64 8, ptr %18) #3
  call void @llvm.lifetime.end.p0(i64 8, ptr %17) #3
  ret void
}